target datalayout = "e-m:e-p270:32:32-p271:32:32-p272:64:64-i64:64-i128:128-f80:128-n8:16:32:64-S128"
target triple = "x86_64-pc-linux-gnu"

%struct.ImVec2 = type { float, float }
%struct.ImGuiInputTextState = type <{ ptr, ptr, i32, i32, %struct.ImVector.34, %struct.ImVector.34, %struct.ImVector.34, i32, %struct.ImVec2, float, i8, i8, i8, i8, i32, i8, [3 x i8], i32, i32, [4 x i8] }>
%struct.ImVector.34 = type { i32, i32, ptr }

; Function Attrs: inlinehint mustprogress uwtable
define linkonce_odr dso_local void @_ZN8ImVectorIcE7reserveEi(ptr noundef nonnull align 8 dereferenceable(16) %0, i32 noundef %1) #10 comdat align 2 {
  %3 = alloca ptr, align 8
  %4 = alloca i32, align 4
  %5 = alloca ptr, align 8
  store ptr %0, ptr %3, align 8, !tbaa !505
  store i32 %1, ptr %4, align 4, !tbaa !9
  %6 = load ptr, ptr %3, align 8
  %7 = load i32, ptr %4, align 4, !tbaa !9
  %8 = getelementptr inbounds nuw %struct.ImVector.34, ptr %6, i32 0, i32 1
  %9 = load i32, ptr %8, align 4, !tbaa !507
  %10 = icmp sle i32 %7, %9
  br i1 %10, label %11, label %12

11:                                               ; preds = %2
  br label %35

12:                                               ; preds = %2
  call void @llvm.lifetime.start.p0(i64 8, ptr %5) #17
  %13 = load i32, ptr %4, align 4, !tbaa !9
  %14 = sext i32 %13 to i64
  %15 = mul i64 %14, 1
  %16 = call noundef ptr @_ZN5ImGui8MemAllocEm(i64 noundef %15)
  store ptr %16, ptr %5, align 8, !tbaa !4
  %17 = getelementptr inbounds nuw %struct.ImVector.34, ptr %6, i32 0, i32 2
  %18 = load ptr, ptr %17, align 8, !tbaa !509
  %19 = icmp ne ptr %18, null
  br i1 %19, label %20, label %30

20:                                               ; preds = %12
  %21 = load ptr, ptr %5, align 8, !tbaa !4
  %22 = getelementptr inbounds nuw %struct.ImVector.34, ptr %6, i32 0, i32 2
  %23 = load ptr, ptr %22, align 8, !tbaa !509
  %24 = getelementptr inbounds nuw %struct.ImVector.34, ptr %6, i32 0, i32 0
  %25 = load i32, ptr %24, align 8, !tbaa !508
  %26 = sext i32 %25 to i64
  %27 = mul i64 %26, 1
  call void @llvm.memcpy.p0.p0.i64(ptr align 1 %21, ptr align 1 %23, i64 %27, i1 false)
  %28 = getelementptr inbounds nuw %struct.ImVector.34, ptr %6, i32 0, i32 2
  %29 = load ptr, ptr %28, align 8, !tbaa !509
  call void @_ZN5ImGui7MemFreeEPv(ptr noundef %29)
  br label %30

30:                                               ; preds = %20, %12
  %31 = load ptr, ptr %5, align 8, !tbaa !4
  %32 = getelementptr inbounds nuw %struct.ImVector.34, ptr %6, i32 0, i32 2
  store ptr %31, ptr %32, align 8, !tbaa !509
  %33 = load i32, ptr %4, align 4, !tbaa !9
  %34 = getelementptr inbounds nuw %struct.ImVector.34, ptr %6, i32 0, i32 1
  store i32 %33, ptr %34, align 4, !tbaa !507
  call void @llvm.lifetime.end.p0(i64 8, ptr %5) #17
  br label %35

35:                                               ; preds = %30, %11
  ret void
}

; Function Attrs: inlinehint mustprogress nounwind uwtable
define linkonce_odr dso_local noundef i32 @_ZNK8ImVectorIcE14_grow_capacityEi(ptr noundef nonnull align 8 dereferenceable(16) %0, i32 noundef %1) #2 comdat align 2 {
  %3 = alloca ptr, align 8
  %4 = alloca i32, align 4
  %5 = alloca i32, align 4
  store ptr %0, ptr %3, align 8, !tbaa !505
  store i32 %1, ptr %4, align 4, !tbaa !9
  %6 = load ptr, ptr %3, align 8
  call void @llvm.lifetime.start.p0(i64 4, ptr %5) #17
  %7 = getelementptr inbounds nuw %struct.ImVector.34, ptr %6, i32 0, i32 1
  %8 = load i32, ptr %7, align 4, !tbaa !507
  %9 = icmp ne i32 %8, 0
  br i1 %9, label %10, label %17

10:                                               ; preds = %2
  %11 = getelementptr inbounds nuw %struct.ImVector.34, ptr %6, i32 0, i32 1
  %12 = load i32, ptr %11, align 4, !tbaa !507
  %13 = getelementptr inbounds nuw %struct.ImVector.34, ptr %6, i32 0, i32 1
  %14 = load i32, ptr %13, align 4, !tbaa !507
  %15 = sdiv i32 %14, 2
  %16 = add nsw i32 %12, %15
  br label %18

17:                                               ; preds = %2
  br label %18

18:                                               ; preds = %17, %10
  %19 = phi i32 [ %16, %10 ], [ 8, %17 ]
  store i32 %19, ptr %5, align 4, !tbaa !9
  %20 = load i32, ptr %5, align 4, !tbaa !9
  %21 = load i32, ptr %4, align 4, !tbaa !9
  %22 = icmp sgt i32 %20, %21
  br i1 %22, label %23, label %25

23:                                               ; preds = %18
  %24 = load i32, ptr %5, align 4, !tbaa !9
  br label %27

25:                                               ; preds = %18
  %26 = load i32, ptr %4, align 4, !tbaa !9
  br label %27

27:                                               ; preds = %25, %23
  %28 = phi i32 [ %24, %23 ], [ %26, %25 ]
  call void @llvm.lifetime.end.p0(i64 4, ptr %5) #17
  ret i32 %28
}

; Function Attrs: inlinehint mustprogress nounwind uwtable
define linkonce_odr dso_local noundef nonnull align 1 dereferenceable(1) ptr @_ZN8ImVectorIcEixEi(ptr noundef nonnull align 8 dereferenceable(16) %0, i32 noundef %1) #2 comdat align 2 {
  %3 = alloca ptr, align 8
  %4 = alloca i32, align 4
  store ptr %0, ptr %3, align 8, !tbaa !505
  store i32 %1, ptr %4, align 4, !tbaa !9
  %5 = load ptr, ptr %3, align 8
  %6 = getelementptr inbounds nuw %struct.ImVector.34, ptr %5, i32 0, i32 2
  %7 = load ptr, ptr %6, align 8, !tbaa !509
  %8 = load i32, ptr %4, align 4, !tbaa !9
  %9 = sext i32 %8 to i64
  %10 = getelementptr inbounds i8, ptr %7, i64 %9
  ret ptr %10
}

; Function Attrs: inlinehint mustprogress uwtable
define linkonce_odr dso_local void @_ZN8ImVectorIcE6resizeEi(ptr noundef nonnull align 8 dereferenceable(16) %0, i32 noundef %1) #10 comdat align 2 {
  %3 = alloca ptr, align 8
  %4 = alloca i32, align 4
  store ptr %0, ptr %3, align 8, !tbaa !505
  store i32 %1, ptr %4, align 4, !tbaa !9
  %5 = load ptr, ptr %3, align 8
  %6 = load i32, ptr %4, align 4, !tbaa !9
  %7 = getelementptr inbounds nuw %struct.ImVector.34, ptr %5, i32 0, i32 1
  %8 = load i32, ptr %7, align 4, !tbaa !507
  %9 = icmp sgt i32 %6, %8
  br i1 %9, label %10, label %13

10:                                               ; preds = %2
  %11 = load i32, ptr %4, align 4, !tbaa !9
  %12 = call noundef i32 @_ZNK8ImVectorIcE14_grow_capacityEi(ptr noundef nonnull align 8 dereferenceable(16) %5, i32 noundef %11)
  call void @_ZN8ImVectorIcE7reserveEi(ptr noundef nonnull align 8 dereferenceable(16) %5, i32 noundef %12)
  br label %13

13:                                               ; preds = %10, %2
  %14 = load i32, ptr %4, align 4, !tbaa !9
  %15 = getelementptr inbounds nuw %struct.ImVector.34, ptr %5, i32 0, i32 0
  store i32 %14, ptr %15, align 8, !tbaa !508
  ret void
}

; Function Attrs: inlinehint mustprogress nounwind uwtable
define internal noundef i32 @_ZL7ImClampIiET_S0_S0_S0_(i32 noundef %0, i32 noundef %1, i32 noundef %2) #2 {
  %4 = alloca i32, align 4
  %5 = alloca i32, align 4
  %6 = alloca i32, align 4
  store i32 %0, ptr %4, align 4, !tbaa !9
  store i32 %1, ptr %5, align 4, !tbaa !9
  store i32 %2, ptr %6, align 4, !tbaa !9
  %7 = load i32, ptr %4, align 4, !tbaa !9
  %8 = load i32, ptr %5, align 4, !tbaa !9
  %9 = icmp slt i32 %7, %8
  br i1 %9, label %10, label %12

10:                                               ; preds = %3
  %11 = load i32, ptr %5, align 4, !tbaa !9
  br label %22

12:                                               ; preds = %3
  %13 = load i32, ptr %4, align 4, !tbaa !9
  %14 = load i32, ptr %6, align 4, !tbaa !9
  %15 = icmp sgt i32 %13, %14
  br i1 %15, label %16, label %18

16:                                               ; preds = %12
  %17 = load i32, ptr %6, align 4, !tbaa !9
  br label %20

18:                                               ; preds = %12
  %19 = load i32, ptr %4, align 4, !tbaa !9
  br label %20

20:                                               ; preds = %18, %16
  %21 = phi i32 [ %17, %16 ], [ %19, %18 ]
  br label %22

22:                                               ; preds = %20, %10
  %23 = phi i32 [ %11, %10 ], [ %21, %20 ]
  ret i32 %23
}

; Function Attrs: inlinehint mustprogress nounwind uwtable
define internal noundef i32 @_ZL5ImMaxIiET_S0_S0_(i32 noundef %0, i32 noundef %1) #2 {
  %3 = alloca i32, align 4
  %4 = alloca i32, align 4
  store i32 %0, ptr %3, align 4, !tbaa !9
  store i32 %1, ptr %4, align 4, !tbaa !9
  %5 = load i32, ptr %3, align 4, !tbaa !9
  %6 = load i32, ptr %4, align 4, !tbaa !9
  %7 = icmp sge i32 %5, %6
  br i1 %7, label %8, label %10

8:                                                ; preds = %2
  %9 = load i32, ptr %3, align 4, !tbaa !9
  br label %12

10:                                               ; preds = %2
  %11 = load i32, ptr %4, align 4, !tbaa !9
  br label %12

12:                                               ; preds = %10, %8
  %13 = phi i32 [ %9, %8 ], [ %11, %10 ]
  ret i32 %13
}

; Function Attrs: mustprogress uwtable
define internal noundef zeroext i1 @_ZN5ImStbL24STB_TEXTEDIT_INSERTCHARSEP19ImGuiInputTextStateiPKci(ptr noundef %0, i32 noundef %1, ptr noundef %2, i32 noundef %3) #8 {
  %5 = alloca i1, align 1
  %6 = alloca ptr, align 8
  %7 = alloca i32, align 4
  %8 = alloca ptr, align 8
  %9 = alloca i32, align 4
  %10 = alloca i8, align 1
  %11 = alloca i32, align 4
  %12 = alloca i32, align 4
  %13 = alloca ptr, align 8
  store ptr %0, ptr %6, align 8, !tbaa !420
  store i32 %1, ptr %7, align 4, !tbaa !9
  store ptr %2, ptr %8, align 8, !tbaa !4
  store i32 %3, ptr %9, align 4, !tbaa !9
  call void @llvm.lifetime.start.p0(i64 1, ptr %10) #17
  %14 = load ptr, ptr %6, align 8, !tbaa !420
  %15 = getelementptr inbounds nuw %struct.ImGuiInputTextState, ptr %14, i32 0, i32 14
  %16 = load i32, ptr %15, align 4, !tbaa !454
  %17 = and i32 %16, 2097152
  %18 = icmp ne i32 %17, 0
  %19 = zext i1 %18 to i8
  store i8 %19, ptr %10, align 1, !tbaa !67
  call void @llvm.lifetime.start.p0(i64 4, ptr %11) #17
  %20 = load ptr, ptr %6, align 8, !tbaa !420
  %21 = getelementptr inbounds nuw %struct.ImGuiInputTextState, ptr %20, i32 0, i32 3
  %22 = load i32, ptr %21, align 4, !tbaa !431
  store i32 %22, ptr %11, align 4, !tbaa !9
  %23 = load i8, ptr %10, align 1, !tbaa !67, !range !59, !noundef !60
  %24 = trunc i8 %23 to i1
  br i1 %24, label %37, label %25

25:                                               ; preds = %4
  %26 = load i32, ptr %9, align 4, !tbaa !9
  %27 = load ptr, ptr %6, align 8, !tbaa !420
  %28 = getelementptr inbounds nuw %struct.ImGuiInputTextState, ptr %27, i32 0, i32 3
  %29 = load i32, ptr %28, align 4, !tbaa !431
  %30 = add nsw i32 %26, %29
  %31 = add nsw i32 %30, 1
  %32 = load ptr, ptr %6, align 8, !tbaa !420
  %33 = getelementptr inbounds nuw %struct.ImGuiInputTextState, ptr %32, i32 0, i32 7
  %34 = load i32, ptr %33, align 8, !tbaa !453
  %35 = icmp sgt i32 %31, %34
  br i1 %35, label %36, label %37

36:                                               ; preds = %25
  store i1 false, ptr %5, align 1
  store i32 1, ptr %12, align 4
  br label %106

37:                                               ; preds = %25, %4
  %38 = load i32, ptr %9, align 4, !tbaa !9
  %39 = load i32, ptr %11, align 4, !tbaa !9
  %40 = add nsw i32 %38, %39
  %41 = add nsw i32 %40, 1
  %42 = load ptr, ptr %6, align 8, !tbaa !420
  %43 = getelementptr inbounds nuw %struct.ImGuiInputTextState, ptr %42, i32 0, i32 4
  %44 = getelementptr inbounds nuw %struct.ImVector.34, ptr %43, i32 0, i32 0
  %45 = load i32, ptr %44, align 8, !tbaa !489
  %46 = icmp sgt i32 %41, %45
  br i1 %46, label %47, label %61

47:                                               ; preds = %37
  %48 = load i8, ptr %10, align 1, !tbaa !67, !range !59, !noundef !60
  %49 = trunc i8 %48 to i1
  br i1 %49, label %51, label %50

50:                                               ; preds = %47
  store i1 false, ptr %5, align 1
  store i32 1, ptr %12, align 4
  br label %106

51:                                               ; preds = %47
  %52 = load ptr, ptr %6, align 8, !tbaa !420
  %53 = getelementptr inbounds nuw %struct.ImGuiInputTextState, ptr %52, i32 0, i32 4
  %54 = load i32, ptr %11, align 4, !tbaa !9
  %55 = load i32, ptr %9, align 4, !tbaa !9
  %56 = load i32, ptr %9, align 4, !tbaa !9
  %57 = call noundef i32 @_ZL5ImMaxIiET_S0_S0_(i32 noundef 256, i32 noundef %56)
  %58 = call noundef i32 @_ZL7ImClampIiET_S0_S0_S0_(i32 noundef %55, i32 noundef 32, i32 noundef %57)
  %59 = add nsw i32 %54, %58
  %60 = add nsw i32 %59, 1
  call void @_ZN8ImVectorIcE6resizeEi(ptr noundef nonnull align 8 dereferenceable(16) %53, i32 noundef %60)
  br label %61

61:                                               ; preds = %51, %37
  call void @llvm.lifetime.start.p0(i64 8, ptr %13) #17
  %62 = load ptr, ptr %6, align 8, !tbaa !420
  %63 = getelementptr inbounds nuw %struct.ImGuiInputTextState, ptr %62, i32 0, i32 4
  %64 = getelementptr inbounds nuw %struct.ImVector.34, ptr %63, i32 0, i32 2
  %65 = load ptr, ptr %64, align 8, !tbaa !432
  store ptr %65, ptr %13, align 8, !tbaa !4
  %66 = load i32, ptr %7, align 4, !tbaa !9
  %67 = load i32, ptr %11, align 4, !tbaa !9
  %68 = icmp ne i32 %66, %67
  br i1 %68, label %69, label %85

69:                                               ; preds = %61
  %70 = load ptr, ptr %13, align 8, !tbaa !4
  %71 = load i32, ptr %7, align 4, !tbaa !9
  %72 = sext i32 %71 to i64
  %73 = getelementptr inbounds i8, ptr %70, i64 %72
  %74 = load i32, ptr %9, align 4, !tbaa !9
  %75 = sext i32 %74 to i64
  %76 = getelementptr inbounds i8, ptr %73, i64 %75
  %77 = load ptr, ptr %13, align 8, !tbaa !4
  %78 = load i32, ptr %7, align 4, !tbaa !9
  %79 = sext i32 %78 to i64
  %80 = getelementptr inbounds i8, ptr %77, i64 %79
  %81 = load i32, ptr %11, align 4, !tbaa !9
  %82 = load i32, ptr %7, align 4, !tbaa !9
  %83 = sub nsw i32 %81, %82
  %84 = sext i32 %83 to i64
  call void @llvm.memmove.p0.p0.i64(ptr align 1 %76, ptr align 1 %80, i64 %84, i1 false)
  br label %85

85:                                               ; preds = %69, %61
  %86 = load ptr, ptr %13, align 8, !tbaa !4
  %87 = load i32, ptr %7, align 4, !tbaa !9
  %88 = sext i32 %87 to i64
  %89 = getelementptr inbounds i8, ptr %86, i64 %88
  %90 = load ptr, ptr %8, align 8, !tbaa !4
  %91 = load i32, ptr %9, align 4, !tbaa !9
  %92 = sext i32 %91 to i64
  call void @llvm.memcpy.p0.p0.i64(ptr align 1 %89, ptr align 1 %90, i64 %92, i1 false)
  %93 = load ptr, ptr %6, align 8, !tbaa !420
  %94 = getelementptr inbounds nuw %struct.ImGuiInputTextState, ptr %93, i32 0, i32 12
  store i8 1, ptr %94, align 2, !tbaa !452
  %95 = load i32, ptr %9, align 4, !tbaa !9
  %96 = load ptr, ptr %6, align 8, !tbaa !420
  %97 = getelementptr inbounds nuw %struct.ImGuiInputTextState, ptr %96, i32 0, i32 3
  %98 = load i32, ptr %97, align 4, !tbaa !431
  %99 = add nsw i32 %98, %95
  store i32 %99, ptr %97, align 4, !tbaa !431
  %100 = load ptr, ptr %6, align 8, !tbaa !420
  %101 = getelementptr inbounds nuw %struct.ImGuiInputTextState, ptr %100, i32 0, i32 4
  %102 = load ptr, ptr %6, align 8, !tbaa !420
  %103 = getelementptr inbounds nuw %struct.ImGuiInputTextState, ptr %102, i32 0, i32 3
  %104 = load i32, ptr %103, align 4, !tbaa !431
  %105 = call noundef nonnull align 1 dereferenceable(1) ptr @_ZN8ImVectorIcEixEi(ptr noundef nonnull align 8 dereferenceable(16) %101, i32 noundef %104)
  store i8 0, ptr %105, align 1, !tbaa !380
  store i1 true, ptr %5, align 1
  store i32 1, ptr %12, align 4
  call void @llvm.lifetime.end.p0(i64 8, ptr %13) #17
  br label %106

106:                                              ; preds = %85, %50, %36
  call void @llvm.lifetime.end.p0(i64 4, ptr %11) #17
  call void @llvm.lifetime.end.p0(i64 1, ptr %10) #17
  %107 = load i1, ptr %5, align 1
  ret i1 %107
}