; Function Attrs: mustprogress uwtable
define internal fastcc noundef zeroext i1 @_ZN5ImStbL24STB_TEXTEDIT_INSERTCHARSEP19ImGuiInputTextStateiPKci(ptr noundef captures(none) %0, i32 noundef %1, ptr noundef readonly captures(none) %2, i32 noundef %3) unnamed_addr #5 {
  %5 = getelementptr inbounds nuw i8, ptr %0, i64 92
  %6 = load i32, ptr %5, align 4, !tbaa !414
  %7 = and i32 %6, 2097152
  %.not = icmp eq i32 %7, 0
  %8 = getelementptr inbounds nuw i8, ptr %0, i64 20
  %9 = load i32, ptr %8, align 4, !tbaa !384
  %10 = add nsw i32 %9, %3
  br i1 %.not, label %11, label %.thread

11:                                               ; preds = %4
  %12 = getelementptr inbounds nuw i8, ptr %0, i64 72
  %13 = load i32, ptr %12, align 8, !tbaa !413
  %.not35 = icmp slt i32 %10, %13
  br i1 %.not35, label %14, label %57

14:                                               ; preds = %11
  %15 = getelementptr inbounds nuw i8, ptr %0, i64 24
  %16 = load i32, ptr %15, align 8, !tbaa !452
  %.not36 = icmp slt i32 %10, %16
  br i1 %.not36, label %40, label %57

.thread:                                          ; preds = %4
  %17 = getelementptr inbounds nuw i8, ptr %0, i64 24
  %18 = load i32, ptr %17, align 8, !tbaa !452
  %.not3638 = icmp slt i32 %10, %18
  br i1 %.not3638, label %40, label %19

19:                                               ; preds = %.thread
  %20 = tail call i32 @llvm.smax.i32(i32 %3, i32 32)
  %21 = add nsw i32 %9, %20
  %22 = add nsw i32 %21, 1
  %23 = getelementptr inbounds nuw i8, ptr %0, i64 28
  %24 = load i32, ptr %23, align 4, !tbaa !380
  %.not40 = icmp slt i32 %21, %24
  br i1 %.not40, label %_ZN8ImVectorIcE6resizeEi.exit, label %25

25:                                               ; preds = %19
  %.not.i.i = icmp eq i32 %24, 0
  br i1 %.not.i.i, label %_ZNK8ImVectorIcE14_grow_capacityEi.exit.i, label %26

26:                                               ; preds = %25
  %27 = sdiv i32 %24, 2
  %28 = add nsw i32 %27, %24
  br label %_ZNK8ImVectorIcE14_grow_capacityEi.exit.i

_ZNK8ImVectorIcE14_grow_capacityEi.exit.i:        ; preds = %26, %25
  %29 = phi i32 [ %28, %26 ], [ 8, %25 ]
  %30 = tail call noundef i32 @llvm.smax.i32(i32 %29, i32 %22)
  %31 = sext i32 %30 to i64
  %32 = tail call noundef ptr @_ZN5ImGui8MemAllocEm(i64 noundef %31)
  %33 = getelementptr inbounds nuw i8, ptr %0, i64 32
  %34 = load ptr, ptr %33, align 8, !tbaa !382
  %.not6.i.i = icmp eq ptr %34, null
  br i1 %.not6.i.i, label %39, label %35

35:                                               ; preds = %_ZNK8ImVectorIcE14_grow_capacityEi.exit.i
  %36 = load i32, ptr %17, align 8, !tbaa !383
  %37 = sext i32 %36 to i64
  tail call void @llvm.memcpy.p0.p0.i64(ptr align 1 %32, ptr nonnull align 1 %34, i64 %37, i1 false)
  %38 = load ptr, ptr %33, align 8, !tbaa !382
  tail call void @_ZN5ImGui7MemFreeEPv(ptr noundef %38)
  br label %39

39:                                               ; preds = %35, %_ZNK8ImVectorIcE14_grow_capacityEi.exit.i
  store ptr %32, ptr %33, align 8, !tbaa !382
  store i32 %30, ptr %23, align 4, !tbaa !380
  br label %_ZN8ImVectorIcE6resizeEi.exit

_ZN8ImVectorIcE6resizeEi.exit:                    ; preds = %19, %39
  store i32 %22, ptr %17, align 8, !tbaa !383
  br label %40

40:                                               ; preds = %.thread, %_ZN8ImVectorIcE6resizeEi.exit, %14
  %41 = getelementptr inbounds nuw i8, ptr %0, i64 32
  %42 = load ptr, ptr %41, align 8, !tbaa !385
  %.not37 = icmp eq i32 %1, %9
  %.pre = sext i32 %1 to i64
  br i1 %.not37, label %._crit_edge, label %43

._crit_edge:                                      ; preds = %40
  %.pre41 = sext i32 %3 to i64
  br label %49

43:                                               ; preds = %40
  %44 = getelementptr inbounds i8, ptr %42, i64 %.pre
  %45 = sext i32 %3 to i64
  %46 = getelementptr inbounds i8, ptr %44, i64 %45
  %47 = sub nsw i32 %9, %1
  %48 = sext i32 %47 to i64
  tail call void @llvm.memmove.p0.p0.i64(ptr align 1 %46, ptr align 1 %44, i64 %48, i1 false)
  br label %49

49:                                               ; preds = %._crit_edge, %43
  %.pre-phi42 = phi i64 [ %.pre41, %._crit_edge ], [ %45, %43 ]
  %50 = getelementptr inbounds i8, ptr %42, i64 %.pre
  tail call void @llvm.memcpy.p0.p0.i64(ptr align 1 %50, ptr align 1 %2, i64 %.pre-phi42, i1 false)
  %51 = getelementptr inbounds nuw i8, ptr %0, i64 90
  store i8 1, ptr %51, align 2, !tbaa !412
  %52 = load i32, ptr %8, align 4, !tbaa !384
  %53 = add nsw i32 %52, %3
  store i32 %53, ptr %8, align 4, !tbaa !384
  %54 = load ptr, ptr %41, align 8, !tbaa !382
  %55 = sext i32 %53 to i64
  %56 = getelementptr inbounds i8, ptr %54, i64 %55
  store i8 0, ptr %56, align 1, !tbaa !338
  br label %57

57:                                               ; preds = %14, %11, %49
  %.0 = phi i1 [ true, %49 ], [ false, %11 ], [ false, %14 ]
  ret i1 %.0
}